target datalayout = "e-m:e-p270:32:32-p271:32:32-p272:64:64-i64:64-i128:128-f80:128-n8:16:32:64-S128"
target triple = "x86_64-pc-linux-gnu"

%struct.rb_shape_tree_t = type { ptr, ptr, i32, ptr, i32 }
%struct.rb_shape = type { ptr, i64, i32, i32, i8, i8, i32, ptr }

@rb_shape_tree_ptr = hidden global ptr null, align 8
@id_frozen = internal global i64 0, align 8
@rb_eRuntimeError = external global i64, align 8
@.str.1 = private unnamed_addr constant [36 x i8] c"Ruby:Init_default_shapes:shape_list\00", align 1
@id_t_object = internal global i64 0, align 8
@.str.2 = private unnamed_addr constant [37 x i8] c"Ruby:Init_default_shapes:shape_cache\00", align 1
@.str.6 = private unnamed_addr constant [14 x i8] c"Out of shapes\00", align 1

; Function Attrs: nounwind sspstrong uwtable
define internal ptr @shape_alloc() #0 {
  %1 = alloca i32, align 4
  call void @llvm.lifetime.start.p0(i64 4, ptr %1) #14
  %2 = call ptr @rb_current_shape_tree()
  %3 = getelementptr inbounds nuw %struct.rb_shape_tree_t, ptr %2, i32 0, i32 2
  %4 = load i32, ptr %3, align 8, !tbaa !18
  store i32 %4, ptr %1, align 4, !tbaa !21
  %5 = call ptr @rb_current_shape_tree()
  %6 = getelementptr inbounds nuw %struct.rb_shape_tree_t, ptr %5, i32 0, i32 2
  %7 = load i32, ptr %6, align 8, !tbaa !18
  %8 = add i32 %7, 1
  store i32 %8, ptr %6, align 8, !tbaa !18
  %9 = load i32, ptr %1, align 4, !tbaa !21
  %10 = icmp eq i32 %9, 524288
  br i1 %10, label %11, label %12

11:                                               ; preds = %0
  call void (ptr, ...) @rb_bug(ptr noundef @.str.6) #19
  unreachable

12:                                               ; preds = %0
  %13 = call ptr @rb_current_shape_tree()
  %14 = getelementptr inbounds nuw %struct.rb_shape_tree_t, ptr %13, i32 0, i32 0
  %15 = load ptr, ptr %14, align 8, !tbaa !17
  %16 = load i32, ptr %1, align 4, !tbaa !21
  %17 = zext i32 %16 to i64
  %18 = getelementptr %struct.rb_shape, ptr %15, i64 %17
  call void @llvm.lifetime.end.p0(i64 4, ptr %1) #14
  ret ptr %18
}

; Function Attrs: nounwind sspstrong uwtable
define internal ptr @rb_shape_alloc_with_parent_id(i64 noundef %0, i32 noundef %1) #0 {
  %3 = alloca i64, align 8
  %4 = alloca i32, align 4
  %5 = alloca ptr, align 8
  store i64 %0, ptr %3, align 8, !tbaa !26
  store i32 %1, ptr %4, align 4, !tbaa !21
  call void @llvm.lifetime.start.p0(i64 8, ptr %5) #14
  %6 = call ptr @shape_alloc()
  store ptr %6, ptr %5, align 8, !tbaa !16
  %7 = load i64, ptr %3, align 8, !tbaa !26
  %8 = load ptr, ptr %5, align 8, !tbaa !16
  %9 = getelementptr inbounds nuw %struct.rb_shape, ptr %8, i32 0, i32 1
  store i64 %7, ptr %9, align 8, !tbaa !43
  %10 = load ptr, ptr %5, align 8, !tbaa !16
  %11 = getelementptr inbounds nuw %struct.rb_shape, ptr %10, i32 0, i32 2
  store i32 0, ptr %11, align 8, !tbaa !40
  %12 = load i32, ptr %4, align 4, !tbaa !21
  %13 = load ptr, ptr %5, align 8, !tbaa !16
  %14 = getelementptr inbounds nuw %struct.rb_shape, ptr %13, i32 0, i32 6
  store i32 %12, ptr %14, align 4, !tbaa !22
  %15 = load ptr, ptr %5, align 8, !tbaa !16
  %16 = getelementptr inbounds nuw %struct.rb_shape, ptr %15, i32 0, i32 0
  store ptr null, ptr %16, align 8, !tbaa !51
  %17 = load ptr, ptr %5, align 8, !tbaa !16
  call void @llvm.lifetime.end.p0(i64 8, ptr %5) #14
  ret ptr %17
}

; Function Attrs: inlinehint nounwind sspstrong uwtable
define internal ptr @rb_current_shape_tree() #1 {
  %1 = load ptr, ptr @rb_shape_tree_ptr, align 8, !tbaa !15
  ret ptr %1
}

; Function Attrs: nounwind sspstrong uwtable
define hidden void @Init_default_shapes() #0 {
  %1 = alloca i64, align 8
  %2 = alloca i64, align 8
  %3 = alloca ptr, align 8
  %4 = alloca i8, align 1
  %5 = alloca ptr, align 8
  %6 = alloca ptr, align 8
  %7 = alloca i32, align 4
  %8 = alloca ptr, align 8
  %9 = call noalias nonnull ptr @ruby_xcalloc(i64 noundef 1, i64 noundef 40) #20
  store ptr %9, ptr @rb_shape_tree_ptr, align 8, !tbaa !15
  call void @llvm.lifetime.start.p0(i64 8, ptr %1) #14
  %10 = load i64, ptr @rb_eRuntimeError, align 8, !tbaa !26
  %11 = call i64 @rb_size_mul_or_raise(i64 noundef 524288, i64 noundef 40, i64 noundef %10)
  store i64 %11, ptr %1, align 8, !tbaa !26
  %12 = load i64, ptr %1, align 8, !tbaa !26
  %13 = call ptr @mmap(ptr noundef null, i64 noundef %12, i32 noundef 3, i32 noundef 34, i32 noundef -1, i64 noundef 0) #14
  %14 = load ptr, ptr @rb_shape_tree_ptr, align 8, !tbaa !15
  %15 = getelementptr inbounds nuw %struct.rb_shape_tree_t, ptr %14, i32 0, i32 0
  store ptr %13, ptr %15, align 8, !tbaa !17
  %16 = call ptr @rb_current_shape_tree()
  %17 = getelementptr inbounds nuw %struct.rb_shape_tree_t, ptr %16, i32 0, i32 0
  %18 = load ptr, ptr %17, align 8, !tbaa !17
  %19 = icmp eq ptr %18, inttoptr (i64 -1 to ptr)
  br i1 %19, label %20, label %23

20:                                               ; preds = %0
  %21 = call ptr @rb_current_shape_tree()
  %22 = getelementptr inbounds nuw %struct.rb_shape_tree_t, ptr %21, i32 0, i32 0
  store ptr null, ptr %22, align 8, !tbaa !17
  br label %28

23:                                               ; preds = %0
  %24 = load ptr, ptr @rb_shape_tree_ptr, align 8, !tbaa !15
  %25 = getelementptr inbounds nuw %struct.rb_shape_tree_t, ptr %24, i32 0, i32 0
  %26 = load ptr, ptr %25, align 8, !tbaa !17
  %27 = load i64, ptr %1, align 8, !tbaa !26
  call void @ruby_annotate_mmap(ptr noundef %26, i64 noundef %27, ptr noundef @.str.1)
  br label %28

28:                                               ; preds = %23, %20
  %29 = call ptr @rb_current_shape_tree()
  %30 = getelementptr inbounds nuw %struct.rb_shape_tree_t, ptr %29, i32 0, i32 0
  %31 = load ptr, ptr %30, align 8, !tbaa !17
  %32 = icmp ne ptr %31, null
  br i1 %32, label %34, label %33

33:                                               ; preds = %28
  call void @rb_memerror() #19
  unreachable

34:                                               ; preds = %28
  %35 = call i64 @rb_make_internal_id()
  store i64 %35, ptr @id_frozen, align 8, !tbaa !26
  %36 = call i64 @rb_make_internal_id()
  store i64 %36, ptr @id_t_object, align 8, !tbaa !26
  call void @llvm.lifetime.start.p0(i64 8, ptr %2) #14
  %37 = load i64, ptr @rb_eRuntimeError, align 8, !tbaa !26
  %38 = call i64 @rb_size_mul_or_raise(i64 noundef 16777216, i64 noundef 24, i64 noundef %37)
  store i64 %38, ptr %2, align 8, !tbaa !26
  %39 = load i64, ptr %2, align 8, !tbaa !26
  %40 = call ptr @mmap(ptr noundef null, i64 noundef %39, i32 noundef 3, i32 noundef 34, i32 noundef -1, i64 noundef 0) #14
  %41 = load ptr, ptr @rb_shape_tree_ptr, align 8, !tbaa !15
  %42 = getelementptr inbounds nuw %struct.rb_shape_tree_t, ptr %41, i32 0, i32 3
  store ptr %40, ptr %42, align 8, !tbaa !63
  %43 = load ptr, ptr @rb_shape_tree_ptr, align 8, !tbaa !15
  %44 = getelementptr inbounds nuw %struct.rb_shape_tree_t, ptr %43, i32 0, i32 4
  store i32 0, ptr %44, align 8, !tbaa !64
  %45 = call ptr @rb_current_shape_tree()
  %46 = getelementptr inbounds nuw %struct.rb_shape_tree_t, ptr %45, i32 0, i32 3
  %47 = load ptr, ptr %46, align 8, !tbaa !63
  %48 = icmp eq ptr %47, inttoptr (i64 -1 to ptr)
  br i1 %48, label %49, label %54

49:                                               ; preds = %34
  %50 = call ptr @rb_current_shape_tree()
  %51 = getelementptr inbounds nuw %struct.rb_shape_tree_t, ptr %50, i32 0, i32 3
  store ptr null, ptr %51, align 8, !tbaa !63
  %52 = call ptr @rb_current_shape_tree()
  %53 = getelementptr inbounds nuw %struct.rb_shape_tree_t, ptr %52, i32 0, i32 4
  store i32 16777216, ptr %53, align 8, !tbaa !64
  br label %59

54:                                               ; preds = %34
  %55 = load ptr, ptr @rb_shape_tree_ptr, align 8, !tbaa !15
  %56 = getelementptr inbounds nuw %struct.rb_shape_tree_t, ptr %55, i32 0, i32 3
  %57 = load ptr, ptr %56, align 8, !tbaa !63
  %58 = load i64, ptr %2, align 8, !tbaa !26
  call void @ruby_annotate_mmap(ptr noundef %57, i64 noundef %58, ptr noundef @.str.2)
  br label %59

59:                                               ; preds = %54, %49
  call void @llvm.lifetime.start.p0(i64 8, ptr %3) #14
  %60 = call ptr @rb_shape_alloc_with_parent_id(i64 noundef 0, i32 noundef -1)
  store ptr %60, ptr %3, align 8, !tbaa !16
  %61 = load ptr, ptr %3, align 8, !tbaa !16
  %62 = getelementptr inbounds nuw %struct.rb_shape, ptr %61, i32 0, i32 3
  store i32 0, ptr %62, align 4, !tbaa !65
  %63 = load ptr, ptr %3, align 8, !tbaa !16
  %64 = getelementptr inbounds nuw %struct.rb_shape, ptr %63, i32 0, i32 4
  store i8 0, ptr %64, align 8, !tbaa !28
  %65 = load ptr, ptr %3, align 8, !tbaa !16
  %66 = getelementptr inbounds nuw %struct.rb_shape, ptr %65, i32 0, i32 5
  store i8 0, ptr %66, align 1, !tbaa !66
  %67 = load ptr, ptr %3, align 8, !tbaa !16
  %68 = call ptr @rb_current_shape_tree()
  %69 = getelementptr inbounds nuw %struct.rb_shape_tree_t, ptr %68, i32 0, i32 1
  store ptr %67, ptr %69, align 8, !tbaa !7
  call void @llvm.lifetime.start.p0(i64 1, ptr %4) #14
  %70 = load ptr, ptr %3, align 8, !tbaa !16
  %71 = load i64, ptr @id_frozen, align 8, !tbaa !26
  %72 = call ptr @get_next_shape_internal(ptr noundef %70, i64 noundef %71, i32 noundef 2, ptr noundef %4, i1 noundef zeroext true)
  call void @llvm.lifetime.start.p0(i64 8, ptr %5) #14
  %73 = call ptr @rb_shape_alloc_with_parent_id(i64 noundef 0, i32 noundef 0)
  store ptr %73, ptr %5, align 8, !tbaa !16
  %74 = load ptr, ptr %5, align 8, !tbaa !16
  %75 = getelementptr inbounds nuw %struct.rb_shape, ptr %74, i32 0, i32 4
  store i8 4, ptr %75, align 8, !tbaa !28
  %76 = load ptr, ptr %5, align 8, !tbaa !16
  %77 = getelementptr inbounds nuw %struct.rb_shape, ptr %76, i32 0, i32 5
  store i8 0, ptr %77, align 1, !tbaa !66
  call void @llvm.lifetime.start.p0(i64 8, ptr %6) #14
  %78 = call ptr @rb_gc_heap_sizes()
  store ptr %78, ptr %6, align 8, !tbaa !29
  call void @llvm.lifetime.start.p0(i64 4, ptr %7) #14
  store i32 0, ptr %7, align 4, !tbaa !21
  br label %79

79:                                               ; preds = %110, %59
  %80 = load ptr, ptr %6, align 8, !tbaa !29
  %81 = load i32, ptr %7, align 4, !tbaa !21
  %82 = sext i32 %81 to i64
  %83 = getelementptr i64, ptr %80, i64 %82
  %84 = load i64, ptr %83, align 8, !tbaa !26
  %85 = icmp ugt i64 %84, 0
  br i1 %85, label %87, label %86

86:                                               ; preds = %79
  call void @llvm.lifetime.end.p0(i64 4, ptr %7) #14
  br label %113

87:                                               ; preds = %79
  call void @llvm.lifetime.start.p0(i64 8, ptr %8) #14
  %88 = call ptr @rb_shape_alloc_with_parent_id(i64 noundef 0, i32 noundef -1)
  store ptr %88, ptr %8, align 8, !tbaa !16
  %89 = load ptr, ptr %8, align 8, !tbaa !16
  %90 = getelementptr inbounds nuw %struct.rb_shape, ptr %89, i32 0, i32 4
  store i8 3, ptr %90, align 8, !tbaa !28
  %91 = load i32, ptr %7, align 4, !tbaa !21
  %92 = trunc i32 %91 to i8
  %93 = load ptr, ptr %8, align 8, !tbaa !16
  %94 = getelementptr inbounds nuw %struct.rb_shape, ptr %93, i32 0, i32 5
  store i8 %92, ptr %94, align 1, !tbaa !66
  %95 = load ptr, ptr %6, align 8, !tbaa !29
  %96 = load i32, ptr %7, align 4, !tbaa !21
  %97 = sext i32 %96 to i64
  %98 = getelementptr i64, ptr %95, i64 %97
  %99 = load i64, ptr %98, align 8, !tbaa !26
  %100 = sub i64 %99, 16
  %101 = udiv i64 %100, 8
  %102 = trunc i64 %101 to i32
  %103 = load ptr, ptr %8, align 8, !tbaa !16
  %104 = getelementptr inbounds nuw %struct.rb_shape, ptr %103, i32 0, i32 3
  store i32 %102, ptr %104, align 4, !tbaa !65
  %105 = call ptr @rb_id_table_create(i64 noundef 0)
  %106 = load ptr, ptr %8, align 8, !tbaa !16
  %107 = getelementptr inbounds nuw %struct.rb_shape, ptr %106, i32 0, i32 0
  store ptr %105, ptr %107, align 8, !tbaa !51
  %108 = load ptr, ptr %8, align 8, !tbaa !16
  %109 = getelementptr inbounds nuw %struct.rb_shape, ptr %108, i32 0, i32 7
  store ptr null, ptr %109, align 8, !tbaa !58
  call void @llvm.lifetime.end.p0(i64 8, ptr %8) #14
  br label %110

110:                                              ; preds = %87
  %111 = load i32, ptr %7, align 4, !tbaa !21
  %112 = add i32 %111, 1
  store i32 %112, ptr %7, align 4, !tbaa !21
  br label %79, !llvm.loop !67

113:                                              ; preds = %86
  call void @llvm.lifetime.end.p0(i64 8, ptr %6) #14
  call void @llvm.lifetime.end.p0(i64 8, ptr %5) #14
  call void @llvm.lifetime.end.p0(i64 1, ptr %4) #14
  call void @llvm.lifetime.end.p0(i64 8, ptr %3) #14
  call void @llvm.lifetime.end.p0(i64 8, ptr %2) #14
  call void @llvm.lifetime.end.p0(i64 8, ptr %1) #14
  ret void
}