; Function Attrs: nounwind sspstrong uwtable
define hidden void @Init_default_shapes() local_unnamed_addr #1 {
  %1 = alloca i8, align 1
  %2 = tail call noalias nonnull dereferenceable(40) ptr @ruby_xcalloc(i64 noundef 1, i64 noundef 40) #18
  store ptr %2, ptr @rb_shape_tree_ptr, align 8, !tbaa !7
  %3 = load i64, ptr @rb_eRuntimeError, align 8, !tbaa !41
  %4 = tail call i64 @rb_size_mul_or_raise(i64 noundef 524288, i64 noundef 40, i64 noundef %3) #15
  %5 = tail call ptr @mmap(ptr noundef null, i64 noundef %4, i32 noundef 3, i32 noundef 34, i32 noundef -1, i64 noundef 0) #15
  %6 = load ptr, ptr @rb_shape_tree_ptr, align 8, !tbaa !7
  store ptr %5, ptr %6, align 8, !tbaa !16
  %7 = load ptr, ptr @rb_shape_tree_ptr, align 8, !tbaa !7
  %8 = load ptr, ptr %7, align 8, !tbaa !16
  %9 = icmp eq ptr %8, inttoptr (i64 -1 to ptr)
  br i1 %9, label %10, label %11

10:                                               ; preds = %0
  store ptr null, ptr %7, align 8, !tbaa !16
  br label %12

11:                                               ; preds = %0
  tail call void @ruby_annotate_mmap(ptr noundef %8, i64 noundef %4, ptr noundef nonnull @.str.1) #15
  br label %12

12:                                               ; preds = %11, %10
  %13 = load ptr, ptr @rb_shape_tree_ptr, align 8, !tbaa !7
  %14 = load ptr, ptr %13, align 8, !tbaa !16
  %.not = icmp eq ptr %14, null
  br i1 %.not, label %15, label %16

15:                                               ; preds = %12
  tail call void @rb_memerror() #16
  unreachable

16:                                               ; preds = %12
  %17 = tail call i64 @rb_make_internal_id() #15
  store i64 %17, ptr @id_frozen, align 8, !tbaa !41
  %18 = tail call i64 @rb_make_internal_id() #15
  %19 = load i64, ptr @rb_eRuntimeError, align 8, !tbaa !41
  %20 = tail call i64 @rb_size_mul_or_raise(i64 noundef 16777216, i64 noundef 24, i64 noundef %19) #15
  %21 = tail call ptr @mmap(ptr noundef null, i64 noundef %20, i32 noundef 3, i32 noundef 34, i32 noundef -1, i64 noundef 0) #15
  %22 = load ptr, ptr @rb_shape_tree_ptr, align 8, !tbaa !7
  %23 = getelementptr inbounds nuw i8, ptr %22, i64 24
  store ptr %21, ptr %23, align 8, !tbaa !59
  %24 = getelementptr inbounds nuw i8, ptr %22, i64 32
  store i32 0, ptr %24, align 8, !tbaa !65
  %25 = icmp eq ptr %21, inttoptr (i64 -1 to ptr)
  br i1 %25, label %26, label %27

26:                                               ; preds = %16
  store ptr null, ptr %23, align 8, !tbaa !59
  store i32 16777216, ptr %24, align 8, !tbaa !65
  br label %28

27:                                               ; preds = %16
  tail call void @ruby_annotate_mmap(ptr noundef %21, i64 noundef %20, ptr noundef nonnull @.str.2) #15
  %.pre = load ptr, ptr @rb_shape_tree_ptr, align 8, !tbaa !7
  br label %28

28:                                               ; preds = %27, %26
  %29 = phi ptr [ %.pre, %27 ], [ %22, %26 ]
  %30 = getelementptr inbounds nuw i8, ptr %29, i64 16
  %31 = load i32, ptr %30, align 8, !tbaa !17
  %32 = add i32 %31, 1
  store i32 %32, ptr %30, align 8, !tbaa !17
  %33 = icmp eq i32 %31, 524288
  br i1 %33, label %34, label %rb_shape_alloc_with_parent_id.exit

34:                                               ; preds = %28
  tail call void (ptr, ...) @rb_bug(ptr noundef nonnull @.str.6) #16
  unreachable

rb_shape_alloc_with_parent_id.exit:               ; preds = %28
  %35 = load ptr, ptr %29, align 8, !tbaa !16
  %36 = zext i32 %31 to i64
  %37 = getelementptr %struct.rb_shape, ptr %35, i64 %36
  %38 = getelementptr inbounds nuw i8, ptr %37, i64 8
  store i64 0, ptr %38, align 8, !tbaa !42
  %39 = getelementptr inbounds nuw i8, ptr %37, i64 16
  store i32 0, ptr %39, align 8, !tbaa !40
  %40 = getelementptr inbounds nuw i8, ptr %37, i64 28
  store i32 -1, ptr %40, align 4, !tbaa !20
  store ptr null, ptr %37, align 8, !tbaa !46
  %41 = getelementptr inbounds nuw i8, ptr %37, i64 20
  store i32 0, ptr %41, align 4, !tbaa !48
  %42 = getelementptr inbounds nuw i8, ptr %37, i64 24
  store i8 0, ptr %42, align 8, !tbaa !27
  %43 = getelementptr inbounds nuw i8, ptr %37, i64 25
  store i8 0, ptr %43, align 1, !tbaa !47
  %44 = load ptr, ptr @rb_shape_tree_ptr, align 8, !tbaa !7
  %45 = getelementptr inbounds nuw i8, ptr %44, i64 8
  store ptr %37, ptr %45, align 8, !tbaa !11
  call void @llvm.lifetime.start.p0(i64 1, ptr nonnull %1) #15
  %46 = load i64, ptr @id_frozen, align 8, !tbaa !41
  %47 = call fastcc ptr @get_next_shape_internal(ptr noundef nonnull %37, i64 noundef %46, i32 noundef 2, ptr noundef %1, i1 noundef zeroext true)
  %48 = load ptr, ptr @rb_shape_tree_ptr, align 8, !tbaa !7
  %49 = getelementptr inbounds nuw i8, ptr %48, i64 16
  %50 = load i32, ptr %49, align 8, !tbaa !17
  %51 = add i32 %50, 1
  store i32 %51, ptr %49, align 8, !tbaa !17
  %52 = icmp eq i32 %50, 524288
  br i1 %52, label %53, label %rb_shape_alloc_with_parent_id.exit22

53:                                               ; preds = %rb_shape_alloc_with_parent_id.exit
  tail call void (ptr, ...) @rb_bug(ptr noundef nonnull @.str.6) #16
  unreachable

rb_shape_alloc_with_parent_id.exit22:             ; preds = %rb_shape_alloc_with_parent_id.exit
  %54 = load ptr, ptr %48, align 8, !tbaa !16
  %55 = zext i32 %50 to i64
  %56 = getelementptr %struct.rb_shape, ptr %54, i64 %55
  %57 = getelementptr inbounds nuw i8, ptr %56, i64 28
  store i32 0, ptr %57, align 4, !tbaa !20
  %58 = getelementptr inbounds nuw i8, ptr %56, i64 24
  tail call void @llvm.memset.p0.i64(ptr noundef nonnull align 8 dereferenceable(20) %56, i8 0, i64 20, i1 false)
  store i8 4, ptr %58, align 8, !tbaa !27
  %59 = getelementptr inbounds nuw i8, ptr %56, i64 25
  store i8 0, ptr %59, align 1, !tbaa !47
  %60 = tail call ptr @rb_gc_heap_sizes() #15
  %61 = load i64, ptr %60, align 8, !tbaa !41
  %.not2124 = icmp eq i64 %61, 0
  br i1 %.not2124, label %._crit_edge, label %.lr.ph

._crit_edge:                                      ; preds = %rb_shape_alloc_with_parent_id.exit23, %rb_shape_alloc_with_parent_id.exit22
  call void @llvm.lifetime.end.p0(i64 1, ptr nonnull %1) #15
  ret void

.lr.ph:                                           ; preds = %rb_shape_alloc_with_parent_id.exit22, %rb_shape_alloc_with_parent_id.exit23
  %62 = phi ptr [ %87, %rb_shape_alloc_with_parent_id.exit23 ], [ %60, %rb_shape_alloc_with_parent_id.exit22 ]
  %.025 = phi i32 [ %85, %rb_shape_alloc_with_parent_id.exit23 ], [ 0, %rb_shape_alloc_with_parent_id.exit22 ]
  %63 = load ptr, ptr @rb_shape_tree_ptr, align 8, !tbaa !7
  %64 = getelementptr inbounds nuw i8, ptr %63, i64 16
  %65 = load i32, ptr %64, align 8, !tbaa !17
  %66 = add i32 %65, 1
  store i32 %66, ptr %64, align 8, !tbaa !17
  %67 = icmp eq i32 %65, 524288
  br i1 %67, label %68, label %rb_shape_alloc_with_parent_id.exit23

68:                                               ; preds = %.lr.ph
  tail call void (ptr, ...) @rb_bug(ptr noundef nonnull @.str.6) #16
  unreachable

rb_shape_alloc_with_parent_id.exit23:             ; preds = %.lr.ph
  %69 = load ptr, ptr %63, align 8, !tbaa !16
  %70 = zext i32 %65 to i64
  %71 = getelementptr %struct.rb_shape, ptr %69, i64 %70
  %72 = getelementptr inbounds nuw i8, ptr %71, i64 8
  store i64 0, ptr %72, align 8, !tbaa !42
  %73 = getelementptr inbounds nuw i8, ptr %71, i64 16
  store i32 0, ptr %73, align 8, !tbaa !40
  %74 = getelementptr inbounds nuw i8, ptr %71, i64 28
  store i32 -1, ptr %74, align 4, !tbaa !20
  store ptr null, ptr %71, align 8, !tbaa !46
  %75 = getelementptr inbounds nuw i8, ptr %71, i64 24
  store i8 3, ptr %75, align 8, !tbaa !27
  %76 = trunc i32 %.025 to i8
  %77 = getelementptr inbounds nuw i8, ptr %71, i64 25
  store i8 %76, ptr %77, align 1, !tbaa !47
  %78 = load i64, ptr %62, align 8, !tbaa !41
  %79 = add i64 %78, 34359738352
  %80 = lshr i64 %79, 3
  %81 = trunc i64 %80 to i32
  %82 = getelementptr inbounds nuw i8, ptr %71, i64 20
  store i32 %81, ptr %82, align 4, !tbaa !48
  %83 = tail call ptr @rb_id_table_create(i64 noundef 0) #15
  store ptr %83, ptr %71, align 8, !tbaa !46
  %84 = getelementptr inbounds nuw i8, ptr %71, i64 32
  store ptr null, ptr %84, align 8, !tbaa !55
  %85 = add i32 %.025, 1
  %86 = sext i32 %85 to i64
  %87 = getelementptr i64, ptr %60, i64 %86
  %88 = load i64, ptr %87, align 8, !tbaa !41
  %.not21 = icmp eq i64 %88, 0
  br i1 %.not21, label %._crit_edge, label %.lr.ph, !llvm.loop !66
}